Certificate:
    Data:
        Version: 3 (0x2)
        Serial Number: 1 (0x1)
    Signature Algorithm: sha256WithRSAEncryption
        Issuer: C=US, ST=CA, L=SanFrancisco, O=Fort-Funston, OU=MyOrganizationalUnit, CN=Fort-Funston CA/name=EasyRSA/emailAddress=me@myhost.mydomain
        Validity
            Not Before: Dec 29 18:25:44 2014 GMT
            Not After : Dec 26 18:25:44 2024 GMT
        Subject: C=US, ST=CA, L=SanFrancisco, O=Fort-Funston, OU=MyOrganizationalUnit, CN=server/name=EasyRSA/emailAddress=me@myhost.mydomain
        Subject Public Key Info:
            Public Key Algorithm: rsaEncryption
                Public-Key: (2048 bit)
                Modulus:
                    00:c1:a7:00:65:f0:b1:d6:a1:ee:77:d8:ca:af:e1:
                    ba:43:d1:f9:9e:50:25:0a:c7:fd:f9:ae:36:06:69:
                    b8:be:ce:ab:ed:cb:12:20:84:81:20:76:06:cb:d6:
                    09:72:8f:5c:be:5a:f8:5a:39:2e:20:76:af:e9:60:
                    22:c7:23:bf:64:72:2f:69:ed:a0:c0:0d:fe:db:11:
                    51:8f:2d:6a:97:45:5f:15:4f:87:f4:61:e3:9f:79:
                    27:37:fb:10:f1:75:27:f9:f1:bc:7f:63:91:64:a8:
                    8e:5c:03:9f:dd:32:96:87:33:f1:4d:b1:1f:07:68:
                    2a:be:13:e5:6b:8b:5a:c8:1c:93:d5:a9:05:d1:a7:
                    cd:81:97:02:af:d5:ce:89:c6:38:81:a6:e8:fc:d8:
                    31:3e:68:45:61:f9:83:3b:fc:77:be:48:b7:dd:a6:
                    fc:e8:d6:0d:27:ad:f1:23:50:1c:e3:68:f9:32:50:
                    70:70:b6:6b:f2:b7:a1:65:39:15:77:81:75:22:74:
                    9d:da:65:b1:a4:d6:f7:2b:65:7d:6a:82:0b:c6:8b:
                    2f:d9:5b:93:0e:a3:3b:0b:56:ca:29:65:e9:cd:eb:
                    7b:26:85:78:ae:63:cd:10:52:57:9e:12:2d:46:b5:
                    9e:88:6f:51:fd:74:2a:1a:a8:72:54:46:40:4f:74:
                    ea:9d
                Exponent: 65537 (0x10001)
        X509v3 extensions:
            X509v3 Basic Constraints: 
                CA:FALSE
            Netscape Cert Type: 
                SSL Server
            Netscape Comment: 
                Easy-RSA Generated Server Certificate
            X509v3 Subject Key Identifier: 
                A9:FA:54:30:4D:2C:48:77:F6:4D:A2:04:FD:4B:C2:78:B4:40:F5:64
            X509v3 Authority Key Identifier: 
                keyid:42:7D:CF:76:02:45:96:38:D6:95:31:FC:13:60:D6:5F:BC:76:EE:92
                DirName:/C=US/ST=CA/L=SanFrancisco/O=Fort-Funston/OU=MyOrganizationalUnit/CN=Fort-Funston CA/name=EasyRSA/emailAddress=me@myhost.mydomain
                serial:A2:54:47:8A:66:01:9E:CC

            X509v3 Extended Key Usage: 
                TLS Web Server Authentication
            X509v3 Key Usage: 
                Digital Signature, Key Encipherment
            X509v3 Subject Alternative Name: 
                DNS:server
    Signature Algorithm: sha256WithRSAEncryption
         1d:73:96:0a:2f:65:b7:4a:0e:e4:10:47:21:70:60:d8:d0:d7:
         ff:f1:65:9b:54:7d:86:da:94:cf:dc:ae:8a:4d:bd:53:be:03:
         a6:59:56:19:7b:a0:9a:7f:35:c2:1d:e2:4f:ee:2c:c7:9a:e6:
         e3:bc:c0:a2:f3:0d:a6:a0:67:a5:24:f9:a2:15:09:43:e3:60:
         24:c3:d9:83:1e:2b:74:9c:c5:05:0b:65:a5:b5:39:e6:7c:9f:
         f9:c8:68:00:83:46:86:4d:ac:1c:4c:17:fd:d4:7b:ed:4e:6a:
         6c:d4:8f:a7:28:24:a1:ff:a6:21:ae:c9:41:fd:f1:87:00:f4:
         df:1e:15:1f:ea:9f:28:6c:c6:40:d1:d2:00:6a:91:bf:15:a2:
         f7:14:78:53:28:a5:e1:26:b4:a9:bc:7c:00:50:df:0b:15:05:
         e4:29:8a:90:e8:9a:6f:f7:a4:62:a5:99:9e:cc:72:ea:0d:be:
         97:da:e4:92:02:ed:bf:2d:84:15:28:1d:f9:87:59:9e:e4:e4:
         5f:f5:a2:c1:c3:b2:95:c2:5b:9a:bd:52:84:11:c5:b3:c4:dd:
         de:6f:e5:5d:70:3c:e8:61:5b:b5:1f:5e:d9:a7:45:eb:f0:1b:
         c6:52:6a:a8:d7:69:da:e6:70:e0:20:ff:44:d0:1e:f3:19:70:
         c6:f5:8a:d3
-----BEGIN CERTIFICATE-----
MIIFfDCCBGSgAwIBAgIBATANBgkqhkiG9w0BAQsFADCBtjELMAkGA1UEBhMCVVMx
CzAJBgNVBAgTAkNBMRUwEwYDVQQHEwxTYW5GcmFuY2lzY28xFTATBgNVBAoTDEZv
cnQtRnVuc3RvbjEdMBsGA1UECxMUTXlPcmdhbml6YXRpb25hbFVuaXQxGDAWBgNV
BAMTD0ZvcnQtRnVuc3RvbiBDQTEQMA4GA1UEKRMHRWFzeVJTQTEhMB8GCSqGSIb3
DQEJARYSbWVAbXlob3N0Lm15ZG9tYWluMB4XDTE0MTIyOTE4MjU0NFoXDTI0MTIy
NjE4MjU0NFowga0xCzAJBgNVBAYTAlVTMQswCQYDVQQIEwJDQTEVMBMGA1UEBxMM
U2FuRnJhbmNpc2NvMRUwEwYDVQQKEwxGb3J0LUZ1bnN0b24xHTAbBgNVBAsTFE15
T3JnYW5pemF0aW9uYWxVbml0MQ8wDQYDVQQDEwZzZXJ2ZXIxEDAOBgNVBCkTB0Vh
c3lSU0ExITAfBgkqhkiG9w0BCQEWEm1lQG15aG9zdC5teWRvbWFpbjCCASIwDQYJ
KoZIhvcNAQEBBQADggEPADCCAQoCggEBAMGnAGXwsdah7nfYyq/hukPR+Z5QJQrH
/fmuNgZpuL7Oq+3LEiCEgSB2BsvWCXKPXL5a+Fo5LiB2r+lgIscjv2RyL2ntoMAN
/tsRUY8tapdFXxVPh/Rh4595Jzf7EPF1J/nxvH9jkWSojlwDn90ylocz8U2xHwdo
Kr4T5WuLWsgck9WpBdGnzYGXAq/VzonGOIGm6PzYMT5oRWH5gzv8d75It92m/OjW
DSet8SNQHONo+TJQcHC2a/K3oWU5FXeBdSJ0ndplsaTW9ytlfWqCC8aLL9lbkw6j
OwtWyill6c3reyaFeK5jzRBSV54SLUa1nohvUf10KhqoclRGQE906p0CAwEAAaOC
AZowggGWMAkGA1UdEwQCMAAwEQYJYIZIAYb4QgEBBAQDAgZAMDQGCWCGSAGG+EIB
DQQnFiVFYXN5LVJTQSBHZW5lcmF0ZWQgU2VydmVyIENlcnRpZmljYXRlMB0GA1Ud
DgQWBBSp+lQwTSxId/ZNogT9S8J4tED1ZDCB6wYDVR0jBIHjMIHggBRCfc92AkWW
ONaVMfwTYNZfvHbukqGBvKSBuTCBtjELMAkGA1UEBhMCVVMxCzAJBgNVBAgTAkNB
MRUwEwYDVQQHEwxTYW5GcmFuY2lzY28xFTATBgNVBAoTDEZvcnQtRnVuc3RvbjEd
MBsGA1UECxMUTXlPcmdhbml6YXRpb25hbFVuaXQxGDAWBgNVBAMTD0ZvcnQtRnVu
c3RvbiBDQTEQMA4GA1UEKRMHRWFzeVJTQTEhMB8GCSqGSIb3DQEJARYSbWVAbXlo
b3N0Lm15ZG9tYWluggkAolRHimYBnswwEwYDVR0lBAwwCgYIKwYBBQUHAwEwCwYD
VR0PBAQDAgWgMBEGA1UdEQQKMAiCBnNlcnZlcjANBgkqhkiG9w0BAQsFAAOCAQEA
HXOWCi9lt0oO5BBHIXBg2NDX//Flm1R9htqUz9yuik29U74DpllWGXugmn81wh3i
T+4sx5rm47zAovMNpqBnpST5ohUJQ+NgJMPZgx4rdJzFBQtlpbU55nyf+choAING
hk2sHEwX/dR77U5qbNSPpygkof+mIa7JQf3xhwD03x4VH+qfKGzGQNHSAGqRvxWi
9xR4Uyil4Sa0qbx8AFDfCxUF5CmKkOiab/ekYqWZnsxy6g2+l9rkkgLtvy2EFSgd
+YdZnuTkX/WiwcOylcJbmr1ShBHFs8Td3m/lXXA86GFbtR9e2adF6/AbxlJqqNdp
2uZw4CD/RNAe8xlwxvWK0w==
-----END CERTIFICATE-----
