Certificate:
    Data:
        Version: 3 (0x2)
        Serial Number: 2 (0x2)
    Signature Algorithm: sha256WithRSAEncryption
        Issuer: C=US, ST=CA, L=SanFrancisco, O=Fort-Funston, OU=MyOrganizationalUnit, CN=Fort-Funston CA/name=EasyRSA/emailAddress=me@myhost.mydomain
        Validity
            Not Before: Dec 31 02:57:12 2014 GMT
            Not After : Dec 28 02:57:12 2024 GMT
        Subject: C=US, ST=CA, L=SanFrancisco, O=Fort-Funston, OU=MyOrganizationalUnit, CN=client/name=EasyRSA/emailAddress=me@myhost.mydomain
        Subject Public Key Info:
            Public Key Algorithm: rsaEncryption
                Public-Key: (2048 bit)
                Modulus:
                    00:bb:d7:9b:c3:be:22:6c:c5:67:49:46:1d:09:69:
                    58:2d:e5:97:fd:a8:01:37:0f:ba:a3:40:5c:68:0b:
                    06:93:59:f8:d5:cc:08:6e:28:19:ab:6a:7d:aa:42:
                    de:16:3b:75:37:43:15:75:b8:cb:1c:6f:6d:a1:70:
                    17:8b:21:f6:01:0c:5d:72:64:d2:83:a2:93:80:e0:
                    94:95:ce:90:85:81:5c:6e:46:54:89:d2:73:e3:0d:
                    bf:28:51:09:f3:3d:4d:b0:01:41:e4:82:ed:bf:bc:
                    45:e5:e3:81:3b:83:0d:22:30:44:7b:c1:17:e7:9c:
                    55:b2:6f:d0:8f:76:22:bc:fb:e0:89:44:65:91:85:
                    e9:01:05:20:b1:0f:77:53:55:6a:1b:65:25:7e:7c:
                    94:91:f3:27:ab:f8:28:b1:de:2c:d8:7e:44:2a:bc:
                    36:37:f0:83:c6:64:40:9f:e8:d4:1a:d8:25:bc:e9:
                    bd:6e:dd:42:d1:0d:ae:b5:fc:0a:5d:01:7d:10:2e:
                    dd:4c:4a:a1:4e:74:46:58:a7:5d:26:c7:e7:c1:4c:
                    3f:df:ca:5f:04:50:63:be:c5:f4:f9:02:16:c3:25:
                    75:c4:d4:f3:30:fa:e1:b6:a5:ab:ef:0f:56:89:0a:
                    13:ad:d7:3b:c0:1d:d6:9c:32:64:08:f1:82:47:e5:
                    bf:65
                Exponent: 65537 (0x10001)
        X509v3 extensions:
            X509v3 Basic Constraints: 
                CA:FALSE
            Netscape Comment: 
                Easy-RSA Generated Certificate
            X509v3 Subject Key Identifier: 
                99:2A:B9:DB:9C:D0:57:A7:24:D9:6D:BB:0E:A5:21:E6:60:97:F0:C9
            X509v3 Authority Key Identifier: 
                keyid:5A:97:E7:16:07:93:E0:9C:B0:B0:5F:13:8D:28:A4:E5:A4:2E:0D:5D
                DirName:/C=US/ST=CA/L=SanFrancisco/O=Fort-Funston/OU=MyOrganizationalUnit/CN=Fort-Funston CA/name=EasyRSA/emailAddress=me@myhost.mydomain
                serial:A2:4A:1D:41:4E:01:17:52

            X509v3 Extended Key Usage: 
                TLS Web Client Authentication
            X509v3 Key Usage: 
                Digital Signature
            X509v3 Subject Alternative Name: 
                DNS:client
    Signature Algorithm: sha256WithRSAEncryption
         6c:0d:84:a8:90:6a:2a:d1:a4:70:66:ac:56:a2:de:d5:2e:04:
         22:1c:2d:ad:25:41:02:af:8f:6a:c5:3e:09:25:c2:94:6f:62:
         be:d2:dd:03:51:0a:05:a2:c5:62:81:dd:b8:ed:e4:f5:1b:40:
         62:9c:e5:6e:c7:9e:89:3b:b0:12:bd:f1:a9:d4:9b:d1:f2:02:
         9c:88:9d:2f:f9:66:43:e7:68:c4:dc:aa:a5:4b:71:69:a1:95:
         92:85:2a:23:07:5a:ba:08:34:76:6b:be:17:67:df:b5:50:ba:
         02:8f:ee:43:e3:dc:39:af:00:a4:53:85:c2:a2:c1:a8:7e:b2:
         24:1a:74:51:51:6e:ff:b4:4d:69:0a:14:5e:1a:ed:8a:d0:7a:
         79:5e:e7:49:d3:83:56:7e:ce:ab:96:fa:48:da:a6:fb:c3:72:
         f0:c8:26:78:d1:e4:d5:42:00:44:d0:d2:d7:0d:39:15:82:3f:
         1e:11:b1:92:5a:d1:58:28:55:ec:88:26:b6:38:f1:43:30:bb:
         87:b8:1f:35:01:c1:5b:a9:59:74:8a:5a:97:9f:a3:e5:da:92:
         c5:24:8e:f3:78:c5:2e:a9:52:13:6a:55:29:30:4c:45:f2:66:
         1f:f3:89:15:3f:23:56:47:7c:ea:b1:ad:e2:0c:ef:5c:75:42:
         31:d3:0a:dd
-----BEGIN CERTIFICATE-----
MIIFYjCCBEqgAwIBAgIBAjANBgkqhkiG9w0BAQsFADCBtjELMAkGA1UEBhMCVVMx
CzAJBgNVBAgTAkNBMRUwEwYDVQQHEwxTYW5GcmFuY2lzY28xFTATBgNVBAoTDEZv
cnQtRnVuc3RvbjEdMBsGA1UECxMUTXlPcmdhbml6YXRpb25hbFVuaXQxGDAWBgNV
BAMTD0ZvcnQtRnVuc3RvbiBDQTEQMA4GA1UEKRMHRWFzeVJTQTEhMB8GCSqGSIb3
DQEJARYSbWVAbXlob3N0Lm15ZG9tYWluMB4XDTE0MTIzMTAyNTcxMloXDTI0MTIy
ODAyNTcxMlowga0xCzAJBgNVBAYTAlVTMQswCQYDVQQIEwJDQTEVMBMGA1UEBxMM
U2FuRnJhbmNpc2NvMRUwEwYDVQQKEwxGb3J0LUZ1bnN0b24xHTAbBgNVBAsTFE15
T3JnYW5pemF0aW9uYWxVbml0MQ8wDQYDVQQDEwZjbGllbnQxEDAOBgNVBCkTB0Vh
c3lSU0ExITAfBgkqhkiG9w0BCQEWEm1lQG15aG9zdC5teWRvbWFpbjCCASIwDQYJ
KoZIhvcNAQEBBQADggEPADCCAQoCggEBALvXm8O+ImzFZ0lGHQlpWC3ll/2oATcP
uqNAXGgLBpNZ+NXMCG4oGatqfapC3hY7dTdDFXW4yxxvbaFwF4sh9gEMXXJk0oOi
k4DglJXOkIWBXG5GVInSc+MNvyhRCfM9TbABQeSC7b+8ReXjgTuDDSIwRHvBF+ec
VbJv0I92Irz74IlEZZGF6QEFILEPd1NVahtlJX58lJHzJ6v4KLHeLNh+RCq8Njfw
g8ZkQJ/o1BrYJbzpvW7dQtENrrX8Cl0BfRAu3UxKoU50RlinXSbH58FMP9/KXwRQ
Y77F9PkCFsMldcTU8zD64balq+8PVokKE63XO8Ad1pwyZAjxgkflv2UCAwEAAaOC
AYAwggF8MAkGA1UdEwQCMAAwLQYJYIZIAYb4QgENBCAWHkVhc3ktUlNBIEdlbmVy
YXRlZCBDZXJ0aWZpY2F0ZTAdBgNVHQ4EFgQUmSq525zQV6ck2W27DqUh5mCX8Mkw
gesGA1UdIwSB4zCB4IAUWpfnFgeT4JywsF8TjSik5aQuDV2hgbykgbkwgbYxCzAJ
BgNVBAYTAlVTMQswCQYDVQQIEwJDQTEVMBMGA1UEBxMMU2FuRnJhbmNpc2NvMRUw
EwYDVQQKEwxGb3J0LUZ1bnN0b24xHTAbBgNVBAsTFE15T3JnYW5pemF0aW9uYWxV
bml0MRgwFgYDVQQDEw9Gb3J0LUZ1bnN0b24gQ0ExEDAOBgNVBCkTB0Vhc3lSU0Ex
ITAfBgkqhkiG9w0BCQEWEm1lQG15aG9zdC5teWRvbWFpboIJAKJKHUFOARdSMBMG
A1UdJQQMMAoGCCsGAQUFBwMCMAsGA1UdDwQEAwIHgDARBgNVHREECjAIggZjbGll
bnQwDQYJKoZIhvcNAQELBQADggEBAGwNhKiQairRpHBmrFai3tUuBCIcLa0lQQKv
j2rFPgklwpRvYr7S3QNRCgWixWKB3bjt5PUbQGKc5W7Hnok7sBK98anUm9HyApyI
nS/5ZkPnaMTcqqVLcWmhlZKFKiMHWroINHZrvhdn37VQugKP7kPj3DmvAKRThcKi
wah+siQadFFRbv+0TWkKFF4a7YrQenle50nTg1Z+zquW+kjapvvDcvDIJnjR5NVC
AETQ0tcNORWCPx4RsZJa0VgoVeyIJrY48UMwu4e4HzUBwVupWXSKWpefo+XaksUk
jvN4xS6pUhNqVSkwTEXyZh/ziRU/I1ZHfOqxreIM71x1QjHTCt0=
-----END CERTIFICATE-----
