Certificate:
    Data:
        Version: 3 (0x2)
        Serial Number: 3 (0x3)
    Signature Algorithm: sha256WithRSAEncryption
        Issuer: C=US, ST=CA, L=SanFrancisco, O=Fort-Funston, OU=MyOrganizationalUnit, CN=Fort-Funston CA/name=EasyRSA/emailAddress=me@myhost.mydomain
        Validity
            Not Before: Dec 27 08:58:22 2014 GMT
            Not After : Dec 24 08:58:22 2024 GMT
        Subject: C=US, ST=CA, L=SanFrancisco, O=Fort-Funston, OU=MyOrganizationalUnit, CN=client2/name=EasyRSA/emailAddress=me@myhost.mydomain
        Subject Public Key Info:
            Public Key Algorithm: rsaEncryption
                Public-Key: (2048 bit)
                Modulus:
                    00:cb:d2:dc:2f:3b:c7:61:35:bf:cb:f1:76:b8:82:
                    93:37:26:dd:02:39:aa:a2:f6:82:c9:cf:d0:ff:7a:
                    9b:7b:bc:70:bc:5f:63:8b:d6:db:ad:cf:64:a4:38:
                    99:8d:a3:cf:c3:d1:41:fe:e3:f0:c8:f4:f5:d8:af:
                    fc:6c:18:21:1c:7e:ad:96:08:7f:be:7b:18:ff:f1:
                    bd:5d:a1:fe:8f:a2:f6:d0:8c:81:a2:ca:9e:67:5a:
                    ba:5f:73:98:bf:f4:1e:08:58:10:59:07:fd:bd:21:
                    97:b6:11:04:40:15:06:b0:ef:2a:a4:72:28:27:4f:
                    ed:80:93:ce:e8:ce:55:e1:d1:3b:bf:ed:71:9d:fd:
                    d3:a6:39:3d:38:fd:27:b0:5d:50:d3:80:c3:08:3d:
                    58:fd:9f:a8:ca:97:81:33:23:6e:0d:95:60:cf:17:
                    60:7e:fc:b2:ee:2a:b6:c2:ce:80:18:6d:bb:be:da:
                    4c:84:1f:2a:36:83:a2:96:80:e7:07:c1:0a:b5:f1:
                    22:49:55:a8:51:bf:f8:e4:99:c0:ec:d6:71:c3:a5:
                    48:3e:0b:0d:e0:42:35:cf:d6:75:18:f2:fd:9e:4a:
                    eb:a1:bc:75:e5:37:a4:01:4a:74:52:fc:a4:c7:69:
                    2b:44:84:f4:b6:5e:22:f7:05:a9:c3:14:85:cf:fb:
                    21:41
                Exponent: 65537 (0x10001)
        X509v3 extensions:
            X509v3 Basic Constraints: 
                CA:FALSE
            Netscape Cert Type: 
                SSL Server
            Netscape Comment: 
                Easy-RSA Generated Server Certificate
            X509v3 Subject Key Identifier: 
                35:6F:05:58:44:F6:F0:67:53:83:A6:57:87:36:8D:D2:2F:52:FA:84
            X509v3 Authority Key Identifier: 
                keyid:9C:72:FA:C3:AB:65:87:1B:07:67:37:8D:20:A6:36:79:10:38:E3:21
                DirName:/C=US/ST=CA/L=SanFrancisco/O=Fort-Funston/OU=MyOrganizationalUnit/CN=Fort-Funston CA/name=EasyRSA/emailAddress=me@myhost.mydomain
                serial:90:BA:26:29:15:72:1F:43

            X509v3 Extended Key Usage: 
                TLS Web Server Authentication
            X509v3 Key Usage: 
                Digital Signature, Key Encipherment
            X509v3 Subject Alternative Name: 
                DNS:client2
    Signature Algorithm: sha256WithRSAEncryption
         53:c8:26:d5:7b:44:23:6a:39:1e:fa:c6:a2:30:a3:ce:86:13:
         31:38:01:48:a4:b6:86:67:8e:8e:33:af:3e:46:01:ac:27:f5:
         8d:d9:eb:03:87:bf:a2:72:f0:15:16:fb:cd:84:f3:87:99:17:
         b8:85:d4:4e:16:5b:fd:c9:d8:d7:84:a6:80:ad:3d:a3:d3:32:
         10:a7:10:b7:1b:24:27:58:e5:c2:e0:4c:13:d9:06:1c:a2:57:
         35:9f:6f:ba:cd:3b:af:58:b8:9d:17:79:99:57:e5:e5:b6:dd:
         cc:5b:20:04:f6:20:b7:cd:0b:9f:ce:bd:09:ec:dd:69:cd:1e:
         82:31:4d:a9:c9:78:ef:3e:72:ff:1f:73:0e:9c:7b:a8:45:8d:
         59:b2:83:14:77:45:91:1a:75:be:2d:0f:de:95:db:af:c0:6a:
         d9:20:13:79:47:cf:16:d1:34:4c:de:a0:35:f7:ff:ed:e7:0f:
         66:e3:64:cd:1e:91:e1:66:1b:8c:69:cd:72:bd:67:e0:6f:5c:
         da:3d:bf:fd:ba:f7:ba:de:ea:b9:d1:43:8a:f2:a2:7c:87:e2:
         e8:7c:e0:a7:77:06:30:5e:03:c4:f2:d2:ed:a9:78:ee:1f:22:
         ce:33:fa:eb:60:da:f7:17:db:a6:7e:19:d4:38:8b:ef:91:01:
         a9:be:58:b7
-----BEGIN CERTIFICATE-----
MIIFfjCCBGagAwIBAgIBAzANBgkqhkiG9w0BAQsFADCBtjELMAkGA1UEBhMCVVMx
CzAJBgNVBAgTAkNBMRUwEwYDVQQHEwxTYW5GcmFuY2lzY28xFTATBgNVBAoTDEZv
cnQtRnVuc3RvbjEdMBsGA1UECxMUTXlPcmdhbml6YXRpb25hbFVuaXQxGDAWBgNV
BAMTD0ZvcnQtRnVuc3RvbiBDQTEQMA4GA1UEKRMHRWFzeVJTQTEhMB8GCSqGSIb3
DQEJARYSbWVAbXlob3N0Lm15ZG9tYWluMB4XDTE0MTIyNzA4NTgyMloXDTI0MTIy
NDA4NTgyMlowga4xCzAJBgNVBAYTAlVTMQswCQYDVQQIEwJDQTEVMBMGA1UEBxMM
U2FuRnJhbmNpc2NvMRUwEwYDVQQKEwxGb3J0LUZ1bnN0b24xHTAbBgNVBAsTFE15
T3JnYW5pemF0aW9uYWxVbml0MRAwDgYDVQQDEwdjbGllbnQyMRAwDgYDVQQpEwdF
YXN5UlNBMSEwHwYJKoZIhvcNAQkBFhJtZUBteWhvc3QubXlkb21haW4wggEiMA0G
CSqGSIb3DQEBAQUAA4IBDwAwggEKAoIBAQDL0twvO8dhNb/L8Xa4gpM3Jt0COaqi
9oLJz9D/ept7vHC8X2OL1tutz2SkOJmNo8/D0UH+4/DI9PXYr/xsGCEcfq2WCH++
exj/8b1dof6PovbQjIGiyp5nWrpfc5i/9B4IWBBZB/29IZe2EQRAFQaw7yqkcign
T+2Ak87ozlXh0Tu/7XGd/dOmOT04/SewXVDTgMMIPVj9n6jKl4EzI24NlWDPF2B+
/LLuKrbCzoAYbbu+2kyEHyo2g6KWgOcHwQq18SJJVahRv/jkmcDs1nHDpUg+Cw3g
QjXP1nUY8v2eSuuhvHXlN6QBSnRS/KTHaStEhPS2XiL3BanDFIXP+yFBAgMBAAGj
ggGbMIIBlzAJBgNVHRMEAjAAMBEGCWCGSAGG+EIBAQQEAwIGQDA0BglghkgBhvhC
AQ0EJxYlRWFzeS1SU0EgR2VuZXJhdGVkIFNlcnZlciBDZXJ0aWZpY2F0ZTAdBgNV
HQ4EFgQUNW8FWET28GdTg6ZXhzaN0i9S+oQwgesGA1UdIwSB4zCB4IAUnHL6w6tl
hxsHZzeNIKY2eRA44yGhgbykgbkwgbYxCzAJBgNVBAYTAlVTMQswCQYDVQQIEwJD
QTEVMBMGA1UEBxMMU2FuRnJhbmNpc2NvMRUwEwYDVQQKEwxGb3J0LUZ1bnN0b24x
HTAbBgNVBAsTFE15T3JnYW5pemF0aW9uYWxVbml0MRgwFgYDVQQDEw9Gb3J0LUZ1
bnN0b24gQ0ExEDAOBgNVBCkTB0Vhc3lSU0ExITAfBgkqhkiG9w0BCQEWEm1lQG15
aG9zdC5teWRvbWFpboIJAJC6JikVch9DMBMGA1UdJQQMMAoGCCsGAQUFBwMBMAsG
A1UdDwQEAwIFoDASBgNVHREECzAJggdjbGllbnQyMA0GCSqGSIb3DQEBCwUAA4IB
AQBTyCbVe0Qjajke+saiMKPOhhMxOAFIpLaGZ46OM68+RgGsJ/WN2esDh7+icvAV
FvvNhPOHmRe4hdROFlv9ydjXhKaArT2j0zIQpxC3GyQnWOXC4EwT2QYcolc1n2+6
zTuvWLidF3mZV+Xltt3MWyAE9iC3zQufzr0J7N1pzR6CMU2pyXjvPnL/H3MOnHuo
RY1ZsoMUd0WRGnW+LQ/elduvwGrZIBN5R88W0TRM3qA19//t5w9m42TNHpHhZhuM
ac1yvWfgb1zaPb/9uve63uq50UOK8qJ8h+LofOCndwYwXgPE8tLtqXjuHyLOM/rr
YNr3F9umfhnUOIvvkQGpvli3
-----END CERTIFICATE-----
