Certificate:
    Data:
        Version: 3 (0x2)
        Serial Number: 4 (0x4)
    Signature Algorithm: sha256WithRSAEncryption
        Issuer: C=US, ST=CA, L=SanFrancisco, O=Fort-Funston, OU=MyOrganizationalUnit, CN=Fort-Funston CA/name=EasyRSA/emailAddress=me@myhost.mydomain
        Validity
            Not Before: Dec 27 08:58:34 2014 GMT
            Not After : Dec 24 08:58:34 2024 GMT
        Subject: C=US, ST=CA, L=SanFrancisco, O=Fort-Funston, OU=MyOrganizationalUnit, CN=client3/name=EasyRSA/emailAddress=me@myhost.mydomain
        Subject Public Key Info:
            Public Key Algorithm: rsaEncryption
                Public-Key: (2048 bit)
                Modulus:
                    00:c3:d5:c4:9b:01:37:fa:86:51:13:a4:a9:3f:61:
                    ec:aa:1d:37:48:bc:56:bf:54:91:52:f9:db:59:0b:
                    76:85:50:d0:b4:bf:73:ad:6d:b0:ba:0f:b2:80:f0:
                    b6:88:40:37:7a:ee:33:1f:46:b7:03:e6:d2:41:3e:
                    c8:db:bf:60:af:c7:aa:b2:83:0d:c5:fb:97:05:69:
                    45:81:3b:57:33:c0:70:3c:6f:c4:ae:e9:0e:76:cf:
                    29:12:26:89:a2:7a:fc:e2:c7:26:7c:82:4f:b7:28:
                    05:f8:4f:7f:bf:57:4b:46:25:0d:81:27:7e:ac:db:
                    88:61:bc:e8:ad:f3:d1:b2:dd:de:af:c3:53:78:c4:
                    f3:f3:5c:48:ac:cc:9e:7c:a7:4c:7c:7d:02:47:81:
                    85:97:d2:e4:df:d2:f9:54:7c:83:17:7b:cd:aa:31:
                    0d:04:1c:2c:e0:4c:33:de:71:66:88:35:4c:2b:c1:
                    b2:53:0e:b5:0f:a4:01:32:28:5f:79:2a:f8:45:98:
                    67:96:93:68:46:e3:c7:8f:f6:b1:1e:36:75:ee:a8:
                    5a:16:e0:57:0f:ed:e6:fe:f8:f3:69:9c:48:c5:53:
                    67:90:80:83:25:6d:65:8f:d4:0b:d2:ec:8b:a0:fe:
                    2f:64:4c:a0:f8:50:05:25:2a:c9:32:7a:1a:8f:50:
                    0e:13
                Exponent: 65537 (0x10001)
        X509v3 extensions:
            X509v3 Basic Constraints: 
                CA:FALSE
            Netscape Cert Type: 
                SSL Server
            Netscape Comment: 
                Easy-RSA Generated Server Certificate
            X509v3 Subject Key Identifier: 
                CC:36:2D:C9:5E:C1:D9:3D:07:41:95:17:53:B6:39:A4:E5:81:50:65
            X509v3 Authority Key Identifier: 
                keyid:9C:72:FA:C3:AB:65:87:1B:07:67:37:8D:20:A6:36:79:10:38:E3:21
                DirName:/C=US/ST=CA/L=SanFrancisco/O=Fort-Funston/OU=MyOrganizationalUnit/CN=Fort-Funston CA/name=EasyRSA/emailAddress=me@myhost.mydomain
                serial:90:BA:26:29:15:72:1F:43

            X509v3 Extended Key Usage: 
                TLS Web Server Authentication
            X509v3 Key Usage: 
                Digital Signature, Key Encipherment
            X509v3 Subject Alternative Name: 
                DNS:client3
    Signature Algorithm: sha256WithRSAEncryption
         51:98:e6:84:80:b4:3d:3b:03:18:fd:f7:b3:12:84:35:e4:00:
         c3:19:c0:0b:c8:7e:99:0c:b9:3f:09:4c:8d:38:86:59:c7:b8:
         20:22:39:54:9b:5e:26:37:bb:a7:c4:e9:6c:76:65:0c:e9:28:
         9d:44:7f:6e:a6:e8:e7:6d:76:e8:06:27:92:85:f3:42:e5:ca:
         e9:51:7c:ea:85:92:00:29:be:d4:6d:b4:da:1b:71:fd:b8:a9:
         55:3b:e2:49:bf:21:d9:ba:e2:13:b3:60:d1:69:17:cc:19:18:
         55:bc:1f:7d:5e:0f:79:65:98:d1:8a:70:8d:18:30:0d:92:57:
         4f:cc:8a:4f:60:a6:e5:aa:24:a6:8b:c4:90:02:33:4c:6d:be:
         46:a5:80:48:4e:d6:7a:35:6e:18:d6:96:ad:cf:f4:1d:bb:a1:
         21:ac:e6:02:63:d2:f1:09:9b:ba:82:45:0c:85:92:08:5e:ef:
         9f:cf:bd:7e:6e:12:84:65:20:49:7e:04:95:0e:80:61:36:5d:
         f8:05:19:92:21:2d:f0:69:26:d8:b4:c0:0a:f5:c3:bd:f7:80:
         e7:dc:c8:31:4c:5f:1b:86:1e:56:3b:ed:0b:f8:82:65:70:24:
         98:6b:9f:71:71:f1:94:d5:cf:67:69:d4:eb:c0:db:23:2b:8b:
         95:e1:5a:51
-----BEGIN CERTIFICATE-----
MIIFfjCCBGagAwIBAgIBBDANBgkqhkiG9w0BAQsFADCBtjELMAkGA1UEBhMCVVMx
CzAJBgNVBAgTAkNBMRUwEwYDVQQHEwxTYW5GcmFuY2lzY28xFTATBgNVBAoTDEZv
cnQtRnVuc3RvbjEdMBsGA1UECxMUTXlPcmdhbml6YXRpb25hbFVuaXQxGDAWBgNV
BAMTD0ZvcnQtRnVuc3RvbiBDQTEQMA4GA1UEKRMHRWFzeVJTQTEhMB8GCSqGSIb3
DQEJARYSbWVAbXlob3N0Lm15ZG9tYWluMB4XDTE0MTIyNzA4NTgzNFoXDTI0MTIy
NDA4NTgzNFowga4xCzAJBgNVBAYTAlVTMQswCQYDVQQIEwJDQTEVMBMGA1UEBxMM
U2FuRnJhbmNpc2NvMRUwEwYDVQQKEwxGb3J0LUZ1bnN0b24xHTAbBgNVBAsTFE15
T3JnYW5pemF0aW9uYWxVbml0MRAwDgYDVQQDEwdjbGllbnQzMRAwDgYDVQQpEwdF
YXN5UlNBMSEwHwYJKoZIhvcNAQkBFhJtZUBteWhvc3QubXlkb21haW4wggEiMA0G
CSqGSIb3DQEBAQUAA4IBDwAwggEKAoIBAQDD1cSbATf6hlETpKk/YeyqHTdIvFa/
VJFS+dtZC3aFUNC0v3OtbbC6D7KA8LaIQDd67jMfRrcD5tJBPsjbv2Cvx6qygw3F
+5cFaUWBO1czwHA8b8Su6Q52zykSJomievzixyZ8gk+3KAX4T3+/V0tGJQ2BJ36s
24hhvOit89Gy3d6vw1N4xPPzXEiszJ58p0x8fQJHgYWX0uTf0vlUfIMXe82qMQ0E
HCzgTDPecWaINUwrwbJTDrUPpAEyKF95KvhFmGeWk2hG48eP9rEeNnXuqFoW4FcP
7eb++PNpnEjFU2eQgIMlbWWP1AvS7Iug/i9kTKD4UAUlKskyehqPUA4TAgMBAAGj
ggGbMIIBlzAJBgNVHRMEAjAAMBEGCWCGSAGG+EIBAQQEAwIGQDA0BglghkgBhvhC
AQ0EJxYlRWFzeS1SU0EgR2VuZXJhdGVkIFNlcnZlciBDZXJ0aWZpY2F0ZTAdBgNV
HQ4EFgQUzDYtyV7B2T0HQZUXU7Y5pOWBUGUwgesGA1UdIwSB4zCB4IAUnHL6w6tl
hxsHZzeNIKY2eRA44yGhgbykgbkwgbYxCzAJBgNVBAYTAlVTMQswCQYDVQQIEwJD
QTEVMBMGA1UEBxMMU2FuRnJhbmNpc2NvMRUwEwYDVQQKEwxGb3J0LUZ1bnN0b24x
HTAbBgNVBAsTFE15T3JnYW5pemF0aW9uYWxVbml0MRgwFgYDVQQDEw9Gb3J0LUZ1
bnN0b24gQ0ExEDAOBgNVBCkTB0Vhc3lSU0ExITAfBgkqhkiG9w0BCQEWEm1lQG15
aG9zdC5teWRvbWFpboIJAJC6JikVch9DMBMGA1UdJQQMMAoGCCsGAQUFBwMBMAsG
A1UdDwQEAwIFoDASBgNVHREECzAJggdjbGllbnQzMA0GCSqGSIb3DQEBCwUAA4IB
AQBRmOaEgLQ9OwMY/fezEoQ15ADDGcALyH6ZDLk/CUyNOIZZx7ggIjlUm14mN7un
xOlsdmUM6SidRH9upujnbXboBieShfNC5crpUXzqhZIAKb7UbbTaG3H9uKlVO+JJ
vyHZuuITs2DRaRfMGRhVvB99Xg95ZZjRinCNGDANkldPzIpPYKblqiSmi8SQAjNM
bb5GpYBITtZ6NW4Y1patz/Qdu6EhrOYCY9LxCZu6gkUMhZIIXu+fz71+bhKEZSBJ
fgSVDoBhNl34BRmSIS3waSbYtMAK9cO994Dn3MgxTF8bhh5WO+0L+IJlcCSYa59x
cfGU1c9nadTrwNsjK4uV4VpR
-----END CERTIFICATE-----
