Certificate:
    Data:
        Version: 3 (0x2)
        Serial Number: 2 (0x2)
    Signature Algorithm: sha256WithRSAEncryption
        Issuer: C=US, ST=CA, L=SanFrancisco, O=Fort-Funston, OU=MyOrganizationalUnit, CN=Fort-Funston CA/name=EasyRSA/emailAddress=me@myhost.mydomain
        Validity
            Not Before: Dec 27 08:58:12 2014 GMT
            Not After : Dec 24 08:58:12 2024 GMT
        Subject: C=US, ST=CA, L=SanFrancisco, O=Fort-Funston, OU=MyOrganizationalUnit, CN=client1/name=EasyRSA/emailAddress=me@myhost.mydomain
        Subject Public Key Info:
            Public Key Algorithm: rsaEncryption
                Public-Key: (2048 bit)
                Modulus:
                    00:b1:c1:54:f0:47:00:d6:32:b4:c1:7d:84:e1:06:
                    29:4b:2f:7f:57:91:4d:e2:e6:f8:59:5c:35:27:71:
                    5b:ec:0e:03:ba:79:64:16:78:e1:7b:c6:2c:6b:95:
                    ab:e1:f0:ae:2b:2f:93:6e:93:c6:94:51:b6:e8:6c:
                    42:3c:22:11:16:64:82:5a:7f:4c:9e:c6:2a:a4:de:
                    47:4c:df:06:3e:02:df:c5:f5:c1:d3:70:b6:27:cd:
                    49:29:e0:bd:cb:b3:50:b6:d5:21:85:54:58:cc:30:
                    70:81:39:9a:81:ec:0a:2f:60:d6:42:7d:bc:08:80:
                    4a:ef:5a:f7:38:d5:b6:18:4c:d2:60:03:32:84:d7:
                    af:fe:56:65:4d:0a:60:bc:4a:8a:1f:26:92:e5:ca:
                    32:24:aa:30:31:db:39:ea:e3:2a:ac:6c:b8:7a:1f:
                    e0:1f:6a:5d:0a:e6:0d:ef:10:fd:ce:6e:bb:ce:38:
                    44:1c:a0:f0:80:11:76:c1:98:07:3e:5f:d0:57:6b:
                    a2:01:8c:c2:0c:1f:1d:2e:9e:c3:eb:cc:a8:ac:82:
                    53:54:ab:29:68:86:31:2d:23:cc:c2:a7:7c:e6:b7:
                    45:c3:a0:a3:c2:5a:61:35:c6:37:a6:99:dd:ad:e9:
                    53:bd:c0:43:95:eb:79:d8:22:75:80:e5:7e:7d:b1:
                    ef:db
                Exponent: 65537 (0x10001)
        X509v3 extensions:
            X509v3 Basic Constraints: 
                CA:FALSE
            Netscape Cert Type: 
                SSL Server
            Netscape Comment: 
                Easy-RSA Generated Server Certificate
            X509v3 Subject Key Identifier: 
                C9:D8:A7:23:78:CA:35:55:50:E2:A8:78:55:52:30:20:89:2C:55:F9
            X509v3 Authority Key Identifier: 
                keyid:9C:72:FA:C3:AB:65:87:1B:07:67:37:8D:20:A6:36:79:10:38:E3:21
                DirName:/C=US/ST=CA/L=SanFrancisco/O=Fort-Funston/OU=MyOrganizationalUnit/CN=Fort-Funston CA/name=EasyRSA/emailAddress=me@myhost.mydomain
                serial:90:BA:26:29:15:72:1F:43

            X509v3 Extended Key Usage: 
                TLS Web Server Authentication
            X509v3 Key Usage: 
                Digital Signature, Key Encipherment
            X509v3 Subject Alternative Name: 
                DNS:client1
    Signature Algorithm: sha256WithRSAEncryption
         70:e3:d2:75:92:b0:42:96:3a:f4:75:19:de:46:48:e2:b2:f5:
         16:e6:72:00:5e:22:39:65:00:e6:c9:e2:c4:05:57:b4:71:f9:
         d6:7f:91:00:4d:fa:18:f0:4f:11:66:a7:0c:43:10:ff:d8:0a:
         5f:b2:23:fc:ed:6e:fc:8e:9a:33:39:9c:e4:40:38:16:ba:61:
         c5:28:4d:ad:d4:70:2e:c3:f6:e6:38:9d:e5:d5:f6:d5:fb:5e:
         3d:21:45:cb:b3:af:e5:35:6f:12:c1:25:9b:db:58:5a:d8:7e:
         30:db:92:01:da:80:fb:4a:ea:c0:fb:31:35:63:db:50:6e:c7:
         da:e5:e6:ac:76:db:31:bc:bb:37:5e:a4:c9:a2:a0:c8:6d:82:
         6c:3c:34:90:46:5c:c3:53:3d:f1:ae:53:4e:e1:3e:fb:44:51:
         bd:70:85:84:53:10:95:01:0c:94:a5:e2:2f:ef:ae:41:b1:cb:
         ed:df:2e:11:89:45:ee:07:6a:04:37:cf:7d:06:fd:f1:22:ab:
         1f:48:84:91:00:e4:d1:75:2e:c2:77:44:06:b7:e3:12:68:5f:
         e4:25:26:43:95:85:00:78:2d:4e:6d:f1:74:ce:5d:ab:14:f7:
         9c:97:ae:58:59:98:52:54:3c:1d:71:2d:96:b4:dd:d7:53:1a:
         c0:1f:48:d7
-----BEGIN CERTIFICATE-----
MIIFfjCCBGagAwIBAgIBAjANBgkqhkiG9w0BAQsFADCBtjELMAkGA1UEBhMCVVMx
CzAJBgNVBAgTAkNBMRUwEwYDVQQHEwxTYW5GcmFuY2lzY28xFTATBgNVBAoTDEZv
cnQtRnVuc3RvbjEdMBsGA1UECxMUTXlPcmdhbml6YXRpb25hbFVuaXQxGDAWBgNV
BAMTD0ZvcnQtRnVuc3RvbiBDQTEQMA4GA1UEKRMHRWFzeVJTQTEhMB8GCSqGSIb3
DQEJARYSbWVAbXlob3N0Lm15ZG9tYWluMB4XDTE0MTIyNzA4NTgxMloXDTI0MTIy
NDA4NTgxMlowga4xCzAJBgNVBAYTAlVTMQswCQYDVQQIEwJDQTEVMBMGA1UEBxMM
U2FuRnJhbmNpc2NvMRUwEwYDVQQKEwxGb3J0LUZ1bnN0b24xHTAbBgNVBAsTFE15
T3JnYW5pemF0aW9uYWxVbml0MRAwDgYDVQQDEwdjbGllbnQxMRAwDgYDVQQpEwdF
YXN5UlNBMSEwHwYJKoZIhvcNAQkBFhJtZUBteWhvc3QubXlkb21haW4wggEiMA0G
CSqGSIb3DQEBAQUAA4IBDwAwggEKAoIBAQCxwVTwRwDWMrTBfYThBilLL39XkU3i
5vhZXDUncVvsDgO6eWQWeOF7xixrlavh8K4rL5Nuk8aUUbbobEI8IhEWZIJaf0ye
xiqk3kdM3wY+At/F9cHTcLYnzUkp4L3Ls1C21SGFVFjMMHCBOZqB7AovYNZCfbwI
gErvWvc41bYYTNJgAzKE16/+VmVNCmC8SoofJpLlyjIkqjAx2znq4yqsbLh6H+Af
al0K5g3vEP3ObrvOOEQcoPCAEXbBmAc+X9BXa6IBjMIMHx0unsPrzKisglNUqylo
hjEtI8zCp3zmt0XDoKPCWmE1xjemmd2t6VO9wEOV63nYInWA5X59se/bAgMBAAGj
ggGbMIIBlzAJBgNVHRMEAjAAMBEGCWCGSAGG+EIBAQQEAwIGQDA0BglghkgBhvhC
AQ0EJxYlRWFzeS1SU0EgR2VuZXJhdGVkIFNlcnZlciBDZXJ0aWZpY2F0ZTAdBgNV
HQ4EFgQUydinI3jKNVVQ4qh4VVIwIIksVfkwgesGA1UdIwSB4zCB4IAUnHL6w6tl
hxsHZzeNIKY2eRA44yGhgbykgbkwgbYxCzAJBgNVBAYTAlVTMQswCQYDVQQIEwJD
QTEVMBMGA1UEBxMMU2FuRnJhbmNpc2NvMRUwEwYDVQQKEwxGb3J0LUZ1bnN0b24x
HTAbBgNVBAsTFE15T3JnYW5pemF0aW9uYWxVbml0MRgwFgYDVQQDEw9Gb3J0LUZ1
bnN0b24gQ0ExEDAOBgNVBCkTB0Vhc3lSU0ExITAfBgkqhkiG9w0BCQEWEm1lQG15
aG9zdC5teWRvbWFpboIJAJC6JikVch9DMBMGA1UdJQQMMAoGCCsGAQUFBwMBMAsG
A1UdDwQEAwIFoDASBgNVHREECzAJggdjbGllbnQxMA0GCSqGSIb3DQEBCwUAA4IB
AQBw49J1krBCljr0dRneRkjisvUW5nIAXiI5ZQDmyeLEBVe0cfnWf5EATfoY8E8R
ZqcMQxD/2ApfsiP87W78jpozOZzkQDgWumHFKE2t1HAuw/bmOJ3l1fbV+149IUXL
s6/lNW8SwSWb21ha2H4w25IB2oD7SurA+zE1Y9tQbsfa5easdtsxvLs3XqTJoqDI
bYJsPDSQRlzDUz3xrlNO4T77RFG9cIWEUxCVAQyUpeIv765Bscvt3y4RiUXuB2oE
N899Bv3xIqsfSISRAOTRdS7Cd0QGt+MSaF/kJSZDlYUAeC1ObfF0zl2rFPecl65Y
WZhSVDwdcS2WtN3XUxrAH0jX
-----END CERTIFICATE-----
