Certificate:
    Data:
        Version: 3 (0x2)
        Serial Number: 2 (0x2)
    Signature Algorithm: sha256WithRSAEncryption
        Issuer: C=US, ST=CA, L=SanFrancisco, O=Fort-Funston, OU=MyOrganizationalUnit, CN=Fort-Funston CA/name=EasyRSA/emailAddress=me@myhost.mydomain
        Validity
            Not Before: Dec 29 18:25:51 2014 GMT
            Not After : Dec 26 18:25:51 2024 GMT
        Subject: C=US, ST=CA, L=SanFrancisco, O=Fort-Funston, OU=MyOrganizationalUnit, CN=client/name=EasyRSA/emailAddress=me@myhost.mydomain
        Subject Public Key Info:
            Public Key Algorithm: rsaEncryption
                Public-Key: (2048 bit)
                Modulus:
                    00:bf:22:e7:df:67:52:9c:de:14:41:e3:1c:7a:e2:
                    72:f6:5d:7b:55:5a:df:8c:31:c4:98:36:d6:32:7e:
                    b0:44:ab:d3:04:cd:9a:93:9a:fc:26:9c:b7:73:3c:
                    b0:4f:39:ac:0f:28:8c:e4:35:56:a9:c8:9a:92:40:
                    45:b6:85:c6:b4:2a:c5:9d:b2:19:6c:00:b5:db:9a:
                    bf:3d:d0:89:3e:cb:93:d8:22:78:a8:42:51:b1:6e:
                    60:cf:7c:6f:99:94:82:77:4c:97:61:d7:55:52:ad:
                    bb:9e:36:ec:73:08:08:ad:a2:f3:47:e4:9a:e9:36:
                    e4:58:6d:0d:9e:71:15:db:13:57:60:dd:75:ff:ff:
                    fe:26:a3:8a:b4:13:54:e6:8b:65:2c:3a:12:41:11:
                    a6:3d:d6:87:8e:e4:89:4c:21:68:ba:55:d0:7f:ee:
                    36:f9:a6:08:be:f1:41:6f:8e:35:76:a4:ce:62:d1:
                    a2:30:3c:54:a2:ac:7b:90:30:9e:7f:1f:e0:5a:f5:
                    85:ca:bf:a8:f9:f5:3a:6b:ef:21:af:ba:a4:30:c6:
                    92:20:3b:3d:0b:7e:dc:5a:57:37:06:c0:c3:d1:14:
                    df:35:e3:5a:99:95:75:2b:71:90:2d:c3:83:14:b0:
                    e2:9d:f2:de:f8:e5:db:75:e3:be:ba:92:dd:6f:82:
                    dc:ab
                Exponent: 65537 (0x10001)
        X509v3 extensions:
            X509v3 Basic Constraints: 
                CA:FALSE
            Netscape Cert Type: 
                SSL Server
            Netscape Comment: 
                Easy-RSA Generated Server Certificate
            X509v3 Subject Key Identifier: 
                37:36:4D:39:E4:EA:1D:9E:1B:9F:EC:F7:83:E5:9A:BB:79:B4:9A:31
            X509v3 Authority Key Identifier: 
                keyid:42:7D:CF:76:02:45:96:38:D6:95:31:FC:13:60:D6:5F:BC:76:EE:92
                DirName:/C=US/ST=CA/L=SanFrancisco/O=Fort-Funston/OU=MyOrganizationalUnit/CN=Fort-Funston CA/name=EasyRSA/emailAddress=me@myhost.mydomain
                serial:A2:54:47:8A:66:01:9E:CC

            X509v3 Extended Key Usage: 
                TLS Web Server Authentication
            X509v3 Key Usage: 
                Digital Signature, Key Encipherment
            X509v3 Subject Alternative Name: 
                DNS:client
    Signature Algorithm: sha256WithRSAEncryption
         6d:d1:81:c2:63:c7:b6:df:5a:81:19:c4:3b:37:70:95:9f:84:
         ed:54:1a:38:c0:df:49:af:ca:e4:fd:33:cb:e1:78:8a:c8:9a:
         4f:5c:f6:a3:d8:50:79:4e:7a:0e:5a:35:42:a5:cd:03:31:d3:
         2e:3f:71:31:80:2c:ca:e1:66:a5:e9:7d:2a:a1:e5:98:d6:f8:
         70:b0:a1:42:53:9b:68:fc:34:79:d7:9b:ac:d0:a5:a7:61:90:
         0c:81:84:22:51:31:9a:4f:18:4a:cf:ea:a5:80:41:14:16:b6:
         08:cb:13:c2:94:03:12:99:50:55:9b:43:58:34:36:3d:5d:d0:
         4d:fd:e7:32:15:c5:a2:ec:98:ab:cf:55:3d:f9:d4:0a:a5:f9:
         28:94:22:9b:0b:08:7f:19:e8:79:a4:08:e0:b2:e6:9e:3c:5e:
         d4:97:37:af:ce:f4:5c:b3:ed:b0:49:9f:8d:b1:5f:65:51:4f:
         41:a2:39:6e:85:1d:a2:cc:7a:56:4e:d0:62:dd:72:f1:51:b7:
         80:41:f6:62:71:3b:03:10:05:70:8c:30:85:c8:ba:ed:c4:80:
         18:a3:49:04:05:2b:91:65:a2:e9:6c:9a:11:46:c0:e3:6b:4e:
         53:49:b3:00:5c:e8:b4:7d:93:ad:c3:ed:16:64:0d:c8:24:9c:
         9e:cb:85:25
-----BEGIN CERTIFICATE-----
MIIFfDCCBGSgAwIBAgIBAjANBgkqhkiG9w0BAQsFADCBtjELMAkGA1UEBhMCVVMx
CzAJBgNVBAgTAkNBMRUwEwYDVQQHEwxTYW5GcmFuY2lzY28xFTATBgNVBAoTDEZv
cnQtRnVuc3RvbjEdMBsGA1UECxMUTXlPcmdhbml6YXRpb25hbFVuaXQxGDAWBgNV
BAMTD0ZvcnQtRnVuc3RvbiBDQTEQMA4GA1UEKRMHRWFzeVJTQTEhMB8GCSqGSIb3
DQEJARYSbWVAbXlob3N0Lm15ZG9tYWluMB4XDTE0MTIyOTE4MjU1MVoXDTI0MTIy
NjE4MjU1MVowga0xCzAJBgNVBAYTAlVTMQswCQYDVQQIEwJDQTEVMBMGA1UEBxMM
U2FuRnJhbmNpc2NvMRUwEwYDVQQKEwxGb3J0LUZ1bnN0b24xHTAbBgNVBAsTFE15
T3JnYW5pemF0aW9uYWxVbml0MQ8wDQYDVQQDEwZjbGllbnQxEDAOBgNVBCkTB0Vh
c3lSU0ExITAfBgkqhkiG9w0BCQEWEm1lQG15aG9zdC5teWRvbWFpbjCCASIwDQYJ
KoZIhvcNAQEBBQADggEPADCCAQoCggEBAL8i599nUpzeFEHjHHricvZde1Va34wx
xJg21jJ+sESr0wTNmpOa/Cact3M8sE85rA8ojOQ1VqnImpJARbaFxrQqxZ2yGWwA
tduavz3QiT7Lk9gieKhCUbFuYM98b5mUgndMl2HXVVKtu5427HMICK2i80fkmuk2
5FhtDZ5xFdsTV2Dddf///iajirQTVOaLZSw6EkERpj3Wh47kiUwhaLpV0H/uNvmm
CL7xQW+ONXakzmLRojA8VKKse5Awnn8f4Fr1hcq/qPn1OmvvIa+6pDDGkiA7PQt+
3FpXNwbAw9EU3zXjWpmVdStxkC3DgxSw4p3y3vjl23XjvrqS3W+C3KsCAwEAAaOC
AZowggGWMAkGA1UdEwQCMAAwEQYJYIZIAYb4QgEBBAQDAgZAMDQGCWCGSAGG+EIB
DQQnFiVFYXN5LVJTQSBHZW5lcmF0ZWQgU2VydmVyIENlcnRpZmljYXRlMB0GA1Ud
DgQWBBQ3Nk055Oodnhuf7PeD5Zq7ebSaMTCB6wYDVR0jBIHjMIHggBRCfc92AkWW
ONaVMfwTYNZfvHbukqGBvKSBuTCBtjELMAkGA1UEBhMCVVMxCzAJBgNVBAgTAkNB
MRUwEwYDVQQHEwxTYW5GcmFuY2lzY28xFTATBgNVBAoTDEZvcnQtRnVuc3RvbjEd
MBsGA1UECxMUTXlPcmdhbml6YXRpb25hbFVuaXQxGDAWBgNVBAMTD0ZvcnQtRnVu
c3RvbiBDQTEQMA4GA1UEKRMHRWFzeVJTQTEhMB8GCSqGSIb3DQEJARYSbWVAbXlo
b3N0Lm15ZG9tYWluggkAolRHimYBnswwEwYDVR0lBAwwCgYIKwYBBQUHAwEwCwYD
VR0PBAQDAgWgMBEGA1UdEQQKMAiCBmNsaWVudDANBgkqhkiG9w0BAQsFAAOCAQEA
bdGBwmPHtt9agRnEOzdwlZ+E7VQaOMDfSa/K5P0zy+F4isiaT1z2o9hQeU56Dlo1
QqXNAzHTLj9xMYAsyuFmpel9KqHlmNb4cLChQlObaPw0edebrNClp2GQDIGEIlEx
mk8YSs/qpYBBFBa2CMsTwpQDEplQVZtDWDQ2PV3QTf3nMhXFouyYq89VPfnUCqX5
KJQimwsIfxnoeaQI4LLmnjxe1Jc3r870XLPtsEmfjbFfZVFPQaI5boUdosx6Vk7Q
Yt1y8VG3gEH2YnE7AxAFcIwwhci67cSAGKNJBAUrkWWi6WyaEUbA42tOU0mzAFzo
tH2TrcPtFmQNyCScnsuFJQ==
-----END CERTIFICATE-----
