Certificate:
    Data:
        Version: 3 (0x2)
        Serial Number: 1 (0x1)
    Signature Algorithm: sha256WithRSAEncryption
        Issuer: C=US, ST=CA, L=SanFrancisco, O=Fort-Funston, OU=MyOrganizationalUnit, CN=Fort-Funston CA/name=EasyRSA/emailAddress=me@myhost.mydomain
        Validity
            Not Before: Dec 31 02:56:59 2014 GMT
            Not After : Dec 28 02:56:59 2024 GMT
        Subject: C=US, ST=CA, L=SanFrancisco, O=Fort-Funston, OU=MyOrganizationalUnit, CN=server/name=EasyRSA/emailAddress=me@myhost.mydomain
        Subject Public Key Info:
            Public Key Algorithm: rsaEncryption
                Public-Key: (2048 bit)
                Modulus:
                    00:b7:b8:b9:d6:0d:50:c0:2f:58:b3:49:8c:18:cd:
                    47:56:2e:7d:b0:1d:85:92:14:e4:12:aa:e2:ec:b7:
                    22:d2:7f:86:94:7d:b6:3b:08:e7:51:ae:dc:de:d2:
                    2b:a2:41:cb:8e:1e:12:e5:f9:1d:03:a1:68:94:67:
                    43:81:9c:44:22:4b:56:8e:05:ab:a0:d0:fb:67:12:
                    a2:b6:98:e7:d0:9e:1f:34:23:85:3f:77:c3:de:2c:
                    86:10:cf:0b:77:b0:e3:56:21:99:50:49:6c:7c:45:
                    aa:ae:9a:a2:48:79:04:a5:9d:52:43:7e:56:7f:65:
                    67:5b:27:2e:58:5b:13:f4:f7:58:d2:87:de:b7:27:
                    9c:79:1d:f9:58:62:9c:68:a8:9e:52:82:db:2c:0a:
                    d2:d3:93:54:bb:4a:79:d9:8a:57:eb:66:1c:40:01:
                    4b:c3:6b:ee:58:0b:8d:68:3b:eb:aa:ba:ce:73:22:
                    dd:9b:91:f2:be:5f:49:a4:ce:da:6d:4d:f4:02:06:
                    3a:13:8a:02:f9:3b:31:b1:b0:60:d5:5e:7a:d7:a6:
                    f1:10:e8:d4:1f:e0:16:86:61:fc:e7:5b:8f:9c:24:
                    79:88:eb:7e:5d:68:fc:b0:e5:2b:60:84:ef:b9:ed:
                    a7:1b:d6:6b:9e:17:d4:6e:79:8d:0a:8d:ef:f0:c4:
                    7b:73
                Exponent: 65537 (0x10001)
        X509v3 extensions:
            X509v3 Basic Constraints: 
                CA:FALSE
            Netscape Cert Type: 
                SSL Server
            Netscape Comment: 
                Easy-RSA Generated Server Certificate
            X509v3 Subject Key Identifier: 
                0C:45:4A:43:BC:DD:DA:56:31:1B:23:97:BF:37:FD:0F:EB:9E:D9:23
            X509v3 Authority Key Identifier: 
                keyid:5A:97:E7:16:07:93:E0:9C:B0:B0:5F:13:8D:28:A4:E5:A4:2E:0D:5D
                DirName:/C=US/ST=CA/L=SanFrancisco/O=Fort-Funston/OU=MyOrganizationalUnit/CN=Fort-Funston CA/name=EasyRSA/emailAddress=me@myhost.mydomain
                serial:A2:4A:1D:41:4E:01:17:52

            X509v3 Extended Key Usage: 
                TLS Web Server Authentication
            X509v3 Key Usage: 
                Digital Signature, Key Encipherment
            X509v3 Subject Alternative Name: 
                DNS:server
    Signature Algorithm: sha256WithRSAEncryption
         16:e9:73:f4:b2:1a:8a:d6:30:ca:ec:99:cd:8d:37:1b:43:cd:
         d1:aa:fe:68:7e:81:c6:60:e3:be:7b:6f:9f:7e:0b:56:89:4b:
         7c:83:82:e8:09:5e:71:a2:cf:b8:61:74:b5:10:96:42:09:9e:
         a0:4c:89:f7:62:af:4f:9a:72:22:28:8d:89:21:3c:1e:ea:27:
         50:11:98:d6:c2:3f:4d:60:1b:69:85:93:6b:62:46:07:b3:99:
         78:24:10:e7:da:0d:f6:26:ee:b0:18:6b:a8:c0:33:05:70:a9:
         0e:18:c2:67:9c:67:1b:c4:fc:b8:2d:69:2f:05:52:33:b7:b7:
         d0:10:e9:5c:09:40:b7:65:b0:33:76:14:bd:b9:5c:dc:c6:e1:
         cf:eb:57:0e:cb:42:96:fa:ca:1b:82:05:5c:bd:d0:0b:44:7a:
         e9:11:b1:65:5a:78:74:35:50:43:47:a6:b7:7a:1a:b6:da:a3:
         18:1c:bd:a6:53:26:6c:27:36:6a:9e:4f:83:fd:76:e5:db:6f:
         b2:61:4d:c6:17:10:99:39:83:e1:78:e7:50:84:eb:6e:eb:4f:
         9d:08:c0:6e:fc:38:05:ac:08:33:c5:46:7b:3b:52:4b:3e:de:
         92:c0:5c:c0:c0:e1:23:ff:68:84:e4:b0:f9:08:82:c2:02:d7:
         6d:af:3f:1e
-----BEGIN CERTIFICATE-----
MIIFfDCCBGSgAwIBAgIBATANBgkqhkiG9w0BAQsFADCBtjELMAkGA1UEBhMCVVMx
CzAJBgNVBAgTAkNBMRUwEwYDVQQHEwxTYW5GcmFuY2lzY28xFTATBgNVBAoTDEZv
cnQtRnVuc3RvbjEdMBsGA1UECxMUTXlPcmdhbml6YXRpb25hbFVuaXQxGDAWBgNV
BAMTD0ZvcnQtRnVuc3RvbiBDQTEQMA4GA1UEKRMHRWFzeVJTQTEhMB8GCSqGSIb3
DQEJARYSbWVAbXlob3N0Lm15ZG9tYWluMB4XDTE0MTIzMTAyNTY1OVoXDTI0MTIy
ODAyNTY1OVowga0xCzAJBgNVBAYTAlVTMQswCQYDVQQIEwJDQTEVMBMGA1UEBxMM
U2FuRnJhbmNpc2NvMRUwEwYDVQQKEwxGb3J0LUZ1bnN0b24xHTAbBgNVBAsTFE15
T3JnYW5pemF0aW9uYWxVbml0MQ8wDQYDVQQDEwZzZXJ2ZXIxEDAOBgNVBCkTB0Vh
c3lSU0ExITAfBgkqhkiG9w0BCQEWEm1lQG15aG9zdC5teWRvbWFpbjCCASIwDQYJ
KoZIhvcNAQEBBQADggEPADCCAQoCggEBALe4udYNUMAvWLNJjBjNR1YufbAdhZIU
5BKq4uy3ItJ/hpR9tjsI51Gu3N7SK6JBy44eEuX5HQOhaJRnQ4GcRCJLVo4Fq6DQ
+2cSoraY59CeHzQjhT93w94shhDPC3ew41YhmVBJbHxFqq6aokh5BKWdUkN+Vn9l
Z1snLlhbE/T3WNKH3rcnnHkd+VhinGionlKC2ywK0tOTVLtKedmKV+tmHEABS8Nr
7lgLjWg766q6znMi3ZuR8r5fSaTO2m1N9AIGOhOKAvk7MbGwYNVeetem8RDo1B/g
FoZh/Odbj5wkeYjrfl1o/LDlK2CE77ntpxvWa54X1G55jQqN7/DEe3MCAwEAAaOC
AZowggGWMAkGA1UdEwQCMAAwEQYJYIZIAYb4QgEBBAQDAgZAMDQGCWCGSAGG+EIB
DQQnFiVFYXN5LVJTQSBHZW5lcmF0ZWQgU2VydmVyIENlcnRpZmljYXRlMB0GA1Ud
DgQWBBQMRUpDvN3aVjEbI5e/N/0P657ZIzCB6wYDVR0jBIHjMIHggBRal+cWB5Pg
nLCwXxONKKTlpC4NXaGBvKSBuTCBtjELMAkGA1UEBhMCVVMxCzAJBgNVBAgTAkNB
MRUwEwYDVQQHEwxTYW5GcmFuY2lzY28xFTATBgNVBAoTDEZvcnQtRnVuc3RvbjEd
MBsGA1UECxMUTXlPcmdhbml6YXRpb25hbFVuaXQxGDAWBgNVBAMTD0ZvcnQtRnVu
c3RvbiBDQTEQMA4GA1UEKRMHRWFzeVJTQTEhMB8GCSqGSIb3DQEJARYSbWVAbXlo
b3N0Lm15ZG9tYWluggkAokodQU4BF1IwEwYDVR0lBAwwCgYIKwYBBQUHAwEwCwYD
VR0PBAQDAgWgMBEGA1UdEQQKMAiCBnNlcnZlcjANBgkqhkiG9w0BAQsFAAOCAQEA
Fulz9LIaitYwyuyZzY03G0PN0ar+aH6BxmDjvntvn34LVolLfIOC6AlecaLPuGF0
tRCWQgmeoEyJ92KvT5pyIiiNiSE8HuonUBGY1sI/TWAbaYWTa2JGB7OZeCQQ59oN
9ibusBhrqMAzBXCpDhjCZ5xnG8T8uC1pLwVSM7e30BDpXAlAt2WwM3YUvblc3Mbh
z+tXDstClvrKG4IFXL3QC0R66RGxZVp4dDVQQ0emt3oattqjGBy9plMmbCc2ap5P
g/125dtvsmFNxhcQmTmD4XjnUITrbutPnQjAbvw4BawIM8VGeztSSz7eksBcwMDh
I/9ohOSw+QiCwgLXba8/Hg==
-----END CERTIFICATE-----
